target datalayout = "e-m:e-p270:32:32-p271:32:32-p272:64:64-i64:64-i128:128-f80:128-n8:16:32:64-S128"
target triple = "x86_64-pc-linux-gnu"

%"struct.nori::TVector" = type { %"class.Eigen::Matrix.23" }
%"class.Eigen::Matrix.23" = type { %"class.Eigen::PlainObjectBase.24" }
%"class.Eigen::PlainObjectBase.24" = type { %"class.Eigen::DenseStorage.31" }
%"class.Eigen::DenseStorage.31" = type { %"struct.Eigen::internal::plain_array.32" }
%"struct.Eigen::internal::plain_array.32" = type { [3 x float] }

@_ZTIN4nori13NoriExceptionE = linkonce_odr hidden constant { ptr, ptr, ptr } { ptr getelementptr inbounds (ptr, ptr @_ZTVN10__cxxabiv120__si_class_type_infoE, i64 2), ptr @_ZTSN4nori13NoriExceptionE, ptr @_ZTISt13runtime_error }, comdat, align 8
@.str.10 = private unnamed_addr constant [49 x i8] c"Warp::squareToBeckmann() is not yet implemented!\00", align 1

; Function Attrs: mustprogress uwtable
define hidden void @_ZN4nori4Warp16squareToBeckmannERKNS_6TPointIfLi2EEEf(ptr dead_on_unwind noalias writable sret(%"struct.nori::TVector") align 4 %0, ptr noundef nonnull align 4 dereferenceable(8) %1, float noundef %2) #4 align 2 personality ptr @__gxx_personality_v0 {
  %4 = alloca ptr, align 8
  %5 = alloca ptr, align 8
  %6 = alloca float, align 4
  %7 = alloca ptr, align 8
  %8 = alloca i32, align 4
  store ptr %0, ptr %4, align 8
  store ptr %1, ptr %5, align 8
  store float %2, ptr %6, align 4
  %9 = call ptr @__cxa_allocate_exception(i64 16) #3
  invoke void @_ZN4nori13NoriExceptionC2IJEEEPKcDpRKT_(ptr noundef nonnull align 8 dereferenceable(16) %9, ptr noundef @.str.10)
          to label %10 unwind label %11

10:                                               ; preds = %3
  call void @__cxa_throw(ptr %9, ptr @_ZTIN4nori13NoriExceptionE, ptr @_ZN4nori13NoriExceptionD2Ev) #8
  unreachable

11:                                               ; preds = %3
  %12 = landingpad { ptr, i32 }
          cleanup
  %13 = extractvalue { ptr, i32 } %12, 0
  store ptr %13, ptr %7, align 8
  %14 = extractvalue { ptr, i32 } %12, 1
  store i32 %14, ptr %8, align 4
  call void @__cxa_free_exception(ptr %9) #3
  br label %15

15:                                               ; preds = %11
  %16 = load ptr, ptr %7, align 8
  %17 = load i32, ptr %8, align 4
  %18 = insertvalue { ptr, i32 } poison, ptr %16, 0
  %19 = insertvalue { ptr, i32 } %18, i32 %17, 1
  resume { ptr, i32 } %19
}