; Function Attrs: mustprogress noreturn uwtable
define hidden void @_ZN4nori4Warp16squareToBeckmannERKNS_6TPointIfLi2EEEf(ptr dead_on_unwind noalias nocapture readnone sret(%"struct.nori::TVector") align 4 %0, ptr nocapture noundef nonnull readnone align 4 dereferenceable(8) %1, float noundef %2) local_unnamed_addr #5 align 2 personality ptr @__gxx_personality_v0 {
  %4 = tail call ptr @__cxa_allocate_exception(i64 16) #11
  invoke void @_ZN4nori13NoriExceptionC2IJEEEPKcDpRKT_(ptr noundef nonnull align 8 dereferenceable(16) %4, ptr noundef nonnull @.str.10)
          to label %5 unwind label %6

5:                                                ; preds = %3
  tail call void @__cxa_throw(ptr nonnull %4, ptr nonnull @_ZTIN4nori13NoriExceptionE, ptr nonnull @_ZN4nori13NoriExceptionD2Ev) #12
  unreachable

6:                                                ; preds = %3
  %7 = landingpad { ptr, i32 }
          cleanup
  tail call void @__cxa_free_exception(ptr %4) #11
  resume { ptr, i32 } %7
}